target datalayout = "e-m:e-p270:32:32-p271:32:32-p272:64:64-i64:64-i128:128-f80:128-n8:16:32:64-S128"
target triple = "x86_64-pc-linux-gnu"

%class.ArchiveBuilder = type { ptr, ptr, ptr, ptr, i32, i64, ptr, ptr, ptr, ptr, ptr, ptr, i64, %class.ReservedSpace, %class.VirtualSpace, %class.DumpRegion, %class.DumpRegion, %class.CHeapBitMap, %class.CHeapBitMap, %class.CHeapBitMap, %"class.ArchiveBuilder::SourceObjList", %"class.ArchiveBuilder::SourceObjList", %class.ResizeableResourceHashtable, %class.ResizeableResourceHashtable.0, ptr, ptr, i32, %class.DumpAllocStats, i64, i64, i64 }
%class.ReservedSpace = type <{ ptr, i64, i64, i64, i64, i8, [3 x i8], i32, i8, [7 x i8] }>
%class.VirtualSpace = type { ptr, ptr, ptr, ptr, i8, i8, ptr, ptr, ptr, ptr, ptr, ptr, i64, i64, i64 }
%class.DumpRegion = type { ptr, ptr, ptr, ptr, i64, i8, ptr, ptr }
%class.CHeapBitMap = type <{ %class.GrowableBitMap, i8, [7 x i8] }>
%class.GrowableBitMap = type { %class.BitMap }
%class.BitMap = type { ptr, i64 }
%"class.ArchiveBuilder::SourceObjList" = type { i64, ptr, %class.CHeapBitMap }
%class.ResizeableResourceHashtable = type { %class.ResourceHashtableBase.base, i32 }
%class.ResourceHashtableBase.base = type <{ %class.ResizeableResourceHashtableStorage, i32 }>
%class.ResizeableResourceHashtableStorage = type { i32, ptr }
%class.ResizeableResourceHashtable.0 = type { %class.ResourceHashtableBase.base.3, i32 }
%class.ResourceHashtableBase.base.3 = type <{ %class.ResizeableResourceHashtableStorage.2, i32 }>
%class.ResizeableResourceHashtableStorage.2 = type { i32, ptr }
%class.DumpAllocStats = type { %class.CompactHashtableStats, %class.CompactHashtableStats, [2 x [23 x i32]], [2 x [23 x i32]], i32, i32, i32, i32, i32, i32, i32, i32, i32 }
%class.CompactHashtableStats = type { i32, i32, i32, i32 }

; Function Attrs: mustprogress nounwind uwtable
define linkonce_odr hidden noundef ptr @_ZNK10DumpRegion3topEv(ptr noundef nonnull align 8 dereferenceable(64) %0) #1 comdat align 2 {
  %2 = alloca ptr, align 8
  store ptr %0, ptr %2, align 8
  %3 = load ptr, ptr %2, align 8
  %4 = getelementptr inbounds %class.DumpRegion, ptr %3, i32 0, i32 2
  %5 = load ptr, ptr %4, align 8
  ret ptr %5
}

; Function Attrs: mustprogress nounwind uwtable
define linkonce_odr hidden noundef ptr @_ZNK14ArchiveBuilder19current_dump_regionEv(ptr noundef nonnull align 8 dereferenceable(1080) %0) #1 comdat align 2 {
  %2 = alloca ptr, align 8
  store ptr %0, ptr %2, align 8
  %3 = load ptr, ptr %2, align 8
  %4 = getelementptr inbounds %class.ArchiveBuilder, ptr %3, i32 0, i32 1
  %5 = load ptr, ptr %4, align 8
  ret ptr %5
}

; Function Attrs: mustprogress nounwind uwtable
define hidden void @_ZN14ArchiveBuilder17start_dump_regionEP10DumpRegion(ptr noundef nonnull align 8 dereferenceable(1080) %0, ptr noundef %1) #1 align 2 {
  %3 = alloca ptr, align 8
  %4 = alloca ptr, align 8
  %5 = alloca ptr, align 8
  %6 = alloca ptr, align 8
  store ptr %0, ptr %3, align 8
  store ptr %1, ptr %4, align 8
  %7 = load ptr, ptr %3, align 8
  %8 = getelementptr inbounds %class.ArchiveBuilder, ptr %7, i32 0, i32 3
  %9 = load ptr, ptr %8, align 8
  store ptr %9, ptr %5, align 8
  %10 = call noundef ptr @_ZNK14ArchiveBuilder19current_dump_regionEv(ptr noundef nonnull align 8 dereferenceable(1080) %7)
  %11 = call noundef ptr @_ZNK10DumpRegion3topEv(ptr noundef nonnull align 8 dereferenceable(64) %10)
  store ptr %11, ptr %6, align 8
  %12 = load ptr, ptr %6, align 8
  %13 = load ptr, ptr %5, align 8
  %14 = ptrtoint ptr %12 to i64
  %15 = ptrtoint ptr %13 to i64
  %16 = sub i64 %14, %15
  %17 = getelementptr inbounds %class.ArchiveBuilder, ptr %7, i32 0, i32 5
  %18 = load i64, ptr %17, align 8
  %19 = add i64 %18, %16
  store i64 %19, ptr %17, align 8
  %20 = call noundef ptr @_ZNK14ArchiveBuilder19current_dump_regionEv(ptr noundef nonnull align 8 dereferenceable(1080) %7)
  %21 = load ptr, ptr %4, align 8
  call void @_ZN10DumpRegion4packEPS_(ptr noundef nonnull align 8 dereferenceable(64) %20, ptr noundef %21)
  %22 = load ptr, ptr %4, align 8
  %23 = getelementptr inbounds %class.ArchiveBuilder, ptr %7, i32 0, i32 1
  store ptr %22, ptr %23, align 8
  %24 = getelementptr inbounds %class.ArchiveBuilder, ptr %7, i32 0, i32 4
  %25 = load i32, ptr %24, align 8
  %26 = add nsw i32 %25, 1
  store i32 %26, ptr %24, align 8
  %27 = call noundef ptr @_ZNK14ArchiveBuilder19current_dump_regionEv(ptr noundef nonnull align 8 dereferenceable(1080) %7)
  %28 = call noundef ptr @_ZNK10DumpRegion3topEv(ptr noundef nonnull align 8 dereferenceable(64) %27)
  %29 = getelementptr inbounds %class.ArchiveBuilder, ptr %7, i32 0, i32 3
  store ptr %28, ptr %29, align 8
  ret void
}