; Function Attrs: mustprogress nounwind uwtable
define hidden void @_ZN14ArchiveBuilder17start_dump_regionEP10DumpRegion(ptr nocapture noundef nonnull align 8 dereferenceable(1080) %0, ptr noundef %1) local_unnamed_addr #1 align 2 {
  %3 = getelementptr inbounds i8, ptr %0, i64 24
  %4 = load ptr, ptr %3, align 8
  %5 = getelementptr inbounds i8, ptr %0, i64 8
  %6 = load ptr, ptr %5, align 8
  %7 = getelementptr inbounds i8, ptr %6, i64 16
  %8 = load ptr, ptr %7, align 8
  %9 = ptrtoint ptr %8 to i64
  %10 = ptrtoint ptr %4 to i64
  %11 = sub i64 %9, %10
  %12 = getelementptr inbounds i8, ptr %0, i64 40
  %13 = load i64, ptr %12, align 8
  %14 = add i64 %11, %13
  store i64 %14, ptr %12, align 8
  tail call void @_ZN10DumpRegion4packEPS_(ptr noundef nonnull align 8 dereferenceable(64) %6, ptr noundef %1) #19
  store ptr %1, ptr %5, align 8
  %15 = getelementptr inbounds i8, ptr %0, i64 32
  %16 = load i32, ptr %15, align 8
  %17 = add nsw i32 %16, 1
  store i32 %17, ptr %15, align 8
  %18 = getelementptr inbounds i8, ptr %1, i64 16
  %19 = load ptr, ptr %18, align 8
  store ptr %19, ptr %3, align 8
  ret void
}